target datalayout = "e-m:e-p270:32:32-p271:32:32-p272:64:64-i64:64-i128:128-f80:128-n8:16:32:64-S128"
target triple = "x86_64-pc-linux-gnu"

%struct.expert_field = type { i32, i32 }
%struct.MessageHeader = type { [4 x i8], %struct.Version, i8, i8, i32, i32, i32, ptr }
%struct.Version = type { i8, i8 }

@ei_gias_unknown_giop_msg = internal global %struct.expert_field zeroinitializer, align 4
@ei_gias_unknown_exception = internal global %struct.expert_field zeroinitializer, align 4
@.str.826 = private unnamed_addr constant [21 x i8] c"Unknown exception %d\00", align 1
@.str.827 = private unnamed_addr constant [24 x i8] c"Unknown GIOP message %d\00", align 1

; Function Attrs: null_pointer_is_valid sspstrong uwtable
define internal void @decode_GIAS_SubmitQueryOrderRequest_resume(ptr noundef %0, ptr noundef %1, ptr noundef %2, ptr noundef %3, ptr noundef %4, ptr noundef %5, ptr noundef %6, i1 noundef zeroext %7) #0 {
  %9 = alloca ptr, align 8
  %10 = alloca ptr, align 8
  %11 = alloca ptr, align 8
  %12 = alloca ptr, align 8
  %13 = alloca ptr, align 8
  %14 = alloca ptr, align 8
  %15 = alloca ptr, align 8
  %16 = alloca i8, align 1
  store ptr %0, ptr %9, align 8
  store ptr %1, ptr %10, align 8
  store ptr %2, ptr %11, align 8
  store ptr %3, ptr %12, align 8
  store ptr %4, ptr %13, align 8
  store ptr %5, ptr %14, align 8
  store ptr %6, ptr %15, align 8
  %17 = zext i1 %7 to i8
  store i8 %17, ptr %16, align 1
  %18 = load ptr, ptr %14, align 8
  %19 = getelementptr inbounds nuw %struct.MessageHeader, ptr %18, i32 0, i32 3
  %20 = load i8, ptr %19, align 1
  %21 = zext i8 %20 to i32
  switch i32 %21, label %34 [
    i32 0, label %42
    i32 1, label %22
  ]

22:                                               ; preds = %8
  %23 = load ptr, ptr %14, align 8
  %24 = getelementptr inbounds nuw %struct.MessageHeader, ptr %23, i32 0, i32 6
  %25 = load i32, ptr %24, align 8
  switch i32 %25, label %26 [
    i32 0, label %33
    i32 1, label %33
  ]

26:                                               ; preds = %22
  %27 = load ptr, ptr %10, align 8
  %28 = load ptr, ptr %12, align 8
  %29 = load ptr, ptr %14, align 8
  %30 = getelementptr inbounds nuw %struct.MessageHeader, ptr %29, i32 0, i32 6
  %31 = load i32, ptr %30, align 8
  %32 = call ptr (ptr, ptr, ptr, ptr, ...) @expert_add_info_format(ptr noundef %27, ptr noundef %28, ptr noundef @ei_gias_unknown_exception, ptr noundef @.str.826, i32 noundef %31)
  br label %33

33:                                               ; preds = %26, %22, %22
  br label %42

34:                                               ; preds = %8
  %35 = load ptr, ptr %10, align 8
  %36 = load ptr, ptr %12, align 8
  %37 = load ptr, ptr %14, align 8
  %38 = getelementptr inbounds nuw %struct.MessageHeader, ptr %37, i32 0, i32 3
  %39 = load i8, ptr %38, align 1
  %40 = zext i8 %39 to i32
  %41 = call ptr (ptr, ptr, ptr, ptr, ...) @expert_add_info_format(ptr noundef %35, ptr noundef %36, ptr noundef @ei_gias_unknown_giop_msg, ptr noundef @.str.827, i32 noundef %40)
  br label %42

42:                                               ; preds = %34, %33, %8
  ret void
}